target datalayout = "e-m:e-p270:32:32-p271:32:32-p272:64:64-i64:64-i128:128-f80:128-n8:16:32:64-S128"
target triple = "x86_64-pc-linux-gnu"

%struct.lg4ff_device = type { i16, i16, [16 x %struct.lg4ff_effect_state], [4 x %struct.lg4ff_slot], i32, i32, i32, i32, i32, i32, i32, ptr, i8, ptr, [256 x i8], ptr, i8 }
%struct.lg4ff_effect_state = type { %union.SDL_HapticEffect, i64, i64, i64, i32, i64, i64, i32, i32, i32, double, i32, i8 }
%union.SDL_HapticEffect = type { %struct.SDL_HapticCustom, [16 x i8] }
%struct.SDL_HapticCustom = type { i16, %struct.SDL_HapticDirection, i32, i16, i16, i16, i8, i16, i16, ptr, i16, i16, i16, i16 }
%struct.SDL_HapticDirection = type { i8, [3 x i32] }
%struct.lg4ff_slot = type { i32, %struct.lg4ff_effect_parameters, [7 x i8], i32, i8, i32 }
%struct.lg4ff_effect_parameters = type { i32, i32, i32, i32, i32, i32 }
%struct.SDL_HIDAPI_HapticDevice = type { ptr, ptr, ptr, ptr }

; Function Attrs: nounwind uwtable
define internal zeroext i1 @lg4ff_effect_slot_valid_active(ptr noundef %0, i32 noundef %1) #0 {
  %3 = alloca i1, align 1
  %4 = alloca ptr, align 8
  %5 = alloca i32, align 4
  store ptr %0, ptr %4, align 8
  store i32 %1, ptr %5, align 4
  %6 = load i32, ptr %5, align 4
  %7 = icmp sge i32 %6, 16
  br i1 %7, label %11, label %8

8:                                                ; preds = %2
  %9 = load i32, ptr %5, align 4
  %10 = icmp slt i32 %9, 0
  br i1 %10, label %11, label %12

11:                                               ; preds = %8, %2
  store i1 false, ptr %3, align 1
  br label %23

12:                                               ; preds = %8
  %13 = load ptr, ptr %4, align 8
  %14 = getelementptr inbounds nuw %struct.lg4ff_device, ptr %13, i32 0, i32 2
  %15 = load i32, ptr %5, align 4
  %16 = sext i32 %15 to i64
  %17 = getelementptr inbounds [16 x %struct.lg4ff_effect_state], ptr %14, i64 0, i64 %16
  %18 = getelementptr inbounds nuw %struct.lg4ff_effect_state, ptr %17, i32 0, i32 12
  %19 = load i8, ptr %18, align 4, !range !5, !noundef !6
  %20 = trunc i8 %19 to i1
  br i1 %20, label %22, label %21

21:                                               ; preds = %12
  store i1 false, ptr %3, align 1
  br label %23

22:                                               ; preds = %12
  store i1 true, ptr %3, align 1
  br label %23

23:                                               ; preds = %22, %21, %11
  %24 = load i1, ptr %3, align 1
  ret i1 %24
}

; Function Attrs: nounwind uwtable
define internal zeroext i1 @SDL_HIDAPI_HapticDriverLg4ff_GetEffectStatus(ptr noundef %0, i32 noundef %1) #0 {
  %3 = alloca i1, align 1
  %4 = alloca ptr, align 8
  %5 = alloca i32, align 4
  %6 = alloca ptr, align 8
  %7 = alloca i8, align 1
  %8 = alloca i32, align 4
  store ptr %0, ptr %4, align 8
  store i32 %1, ptr %5, align 4
  call void @llvm.lifetime.start.p0(i64 8, ptr %6) #6
  %9 = load ptr, ptr %4, align 8
  %10 = getelementptr inbounds nuw %struct.SDL_HIDAPI_HapticDevice, ptr %9, i32 0, i32 3
  %11 = load ptr, ptr %10, align 8
  store ptr %11, ptr %6, align 8
  call void @llvm.lifetime.start.p0(i64 1, ptr %7) #6
  store i8 0, ptr %7, align 1
  %12 = load ptr, ptr %6, align 8
  %13 = getelementptr inbounds nuw %struct.lg4ff_device, ptr %12, i32 0, i32 15
  %14 = load ptr, ptr %13, align 8
  call void @SDL_LockMutex_REAL(ptr noundef %14)
  %15 = load ptr, ptr %6, align 8
  %16 = load i32, ptr %5, align 4
  %17 = call zeroext i1 @lg4ff_effect_slot_valid_active(ptr noundef %15, i32 noundef %16)
  br i1 %17, label %22, label %18

18:                                               ; preds = %2
  %19 = load ptr, ptr %6, align 8
  %20 = getelementptr inbounds nuw %struct.lg4ff_device, ptr %19, i32 0, i32 15
  %21 = load ptr, ptr %20, align 8
  call void @SDL_UnlockMutex_REAL(ptr noundef %21)
  store i1 false, ptr %3, align 1
  store i32 1, ptr %8, align 4
  br label %39

22:                                               ; preds = %2
  %23 = load ptr, ptr %6, align 8
  %24 = getelementptr inbounds nuw %struct.lg4ff_device, ptr %23, i32 0, i32 2
  %25 = load i32, ptr %5, align 4
  %26 = sext i32 %25 to i64
  %27 = getelementptr inbounds [16 x %struct.lg4ff_effect_state], ptr %24, i64 0, i64 %26
  %28 = getelementptr inbounds nuw %struct.lg4ff_effect_state, ptr %27, i32 0, i32 4
  %29 = load i32, ptr %28, align 8
  %30 = and i32 %29, 1
  %31 = icmp ne i32 %30, 0
  br i1 %31, label %32, label %33

32:                                               ; preds = %22
  store i8 1, ptr %7, align 1
  br label %33

33:                                               ; preds = %32, %22
  %34 = load ptr, ptr %6, align 8
  %35 = getelementptr inbounds nuw %struct.lg4ff_device, ptr %34, i32 0, i32 15
  %36 = load ptr, ptr %35, align 8
  call void @SDL_UnlockMutex_REAL(ptr noundef %36)
  %37 = load i8, ptr %7, align 1, !range !5, !noundef !6
  %38 = trunc i8 %37 to i1
  store i1 %38, ptr %3, align 1
  store i32 1, ptr %8, align 4
  br label %39

39:                                               ; preds = %33, %18
  call void @llvm.lifetime.end.p0(i64 1, ptr %7) #6
  call void @llvm.lifetime.end.p0(i64 8, ptr %6) #6
  %40 = load i1, ptr %3, align 1
  ret i1 %40
}