; Function Attrs: nounwind uwtable
define internal zeroext i1 @SDL_HIDAPI_HapticDriverLg4ff_GetEffectStatus(ptr noundef readonly captures(none) %0, i32 noundef %1) #0 {
  %3 = getelementptr inbounds nuw i8, ptr %0, i64 24
  %4 = load ptr, ptr %3, align 8
  %5 = getelementptr inbounds nuw i8, ptr %4, i64 2944
  %6 = load ptr, ptr %5, align 8
  tail call void @SDL_LockMutex_REAL(ptr noundef %6) #8
  %or.cond.i = icmp ugt i32 %1, 15
  br i1 %or.cond.i, label %lg4ff_effect_slot_valid_active.exit.thread, label %lg4ff_effect_slot_valid_active.exit

lg4ff_effect_slot_valid_active.exit:              ; preds = %2
  %7 = getelementptr inbounds nuw i8, ptr %4, i64 8
  %narrow.i = mul nuw nsw i32 %1, 152
  %8 = zext nneg i32 %narrow.i to i64
  %9 = getelementptr inbounds nuw i8, ptr %7, i64 %8
  %10 = getelementptr inbounds nuw i8, ptr %9, i64 148
  %11 = load i8, ptr %10, align 4, !range !7, !noundef !8
  %12 = trunc nuw i8 %11 to i1
  br i1 %12, label %13, label %lg4ff_effect_slot_valid_active.exit.thread

13:                                               ; preds = %lg4ff_effect_slot_valid_active.exit
  %14 = getelementptr i8, ptr %4, i64 104
  %15 = getelementptr i8, ptr %14, i64 %8
  %16 = load i32, ptr %15, align 8
  %17 = and i32 %16, 1
  %.not = icmp ne i32 %17, 0
  br label %lg4ff_effect_slot_valid_active.exit.thread

lg4ff_effect_slot_valid_active.exit.thread:       ; preds = %lg4ff_effect_slot_valid_active.exit, %2, %13
  %.09 = phi i1 [ %.not, %13 ], [ false, %2 ], [ false, %lg4ff_effect_slot_valid_active.exit ]
  %18 = load ptr, ptr %5, align 8
  tail call void @SDL_UnlockMutex_REAL(ptr noundef %18) #8
  ret i1 %.09
}